target datalayout = "e-m:e-p270:32:32-p271:32:32-p272:64:64-i64:64-i128:128-f80:128-n8:16:32:64-S128"
target triple = "x86_64-pc-linux-gnu"

%struct.rb_data_type_struct = type { ptr, %struct.anon, ptr, ptr, i64 }
%struct.anon = type { ptr, ptr, ptr, ptr, [1 x ptr] }
%struct.RTypedData = type { %struct.RBasic, ptr, i64, ptr }
%struct.RBasic = type { i64, i64 }

@ossl_sslctx_ex_ptr_idx = internal global i32 0, align 4
@eSSLError = internal global i64 0, align 8
@ossl_sslctx_type = internal constant %struct.rb_data_type_struct { ptr @.str.186, %struct.anon { ptr @ossl_sslctx_mark, ptr @ossl_sslctx_free, ptr null, ptr null, [1 x ptr] zeroinitializer }, ptr null, ptr null, i64 33 }, align 8
@.str.185 = private unnamed_addr constant [12 x i8] c"SSL_CTX_new\00", align 1

; Function Attrs: nounwind sspstrong uwtable
define internal i64 @ossl_sslctx_s_alloc(i64 noundef %0) #0 {
  %2 = alloca i64, align 8
  %3 = alloca ptr, align 8
  %4 = alloca i64, align 8
  %5 = alloca i64, align 8
  store i64 %0, ptr %2, align 8, !tbaa !14
  call void @llvm.lifetime.start.p0(i64 8, ptr %3) #20
  call void @llvm.lifetime.start.p0(i64 8, ptr %4) #20
  store i64 19, ptr %4, align 8, !tbaa !14
  call void @llvm.lifetime.start.p0(i64 8, ptr %5) #20
  %6 = load i64, ptr %2, align 8, !tbaa !14
  %7 = call i64 @rb_data_typed_object_wrap(i64 noundef %6, ptr noundef null, ptr noundef @ossl_sslctx_type)
  store i64 %7, ptr %5, align 8, !tbaa !14
  %8 = call ptr @TLS_method()
  %9 = call ptr @SSL_CTX_new(ptr noundef %8)
  store ptr %9, ptr %3, align 8, !tbaa !18
  %10 = load ptr, ptr %3, align 8, !tbaa !18
  %11 = icmp ne ptr %10, null
  br i1 %11, label %14, label %12

12:                                               ; preds = %1
  %13 = load i64, ptr @eSSLError, align 8, !tbaa !14
  call void (i64, ptr, ...) @ossl_raise(i64 noundef %13, ptr noundef @.str.185) #22
  unreachable

14:                                               ; preds = %1
  %15 = load ptr, ptr %3, align 8, !tbaa !18
  %16 = load i64, ptr %4, align 8, !tbaa !14
  %17 = call i64 @SSL_CTX_ctrl(ptr noundef %15, i32 noundef 33, i64 noundef %16, ptr noundef null)
  %18 = load ptr, ptr %3, align 8, !tbaa !18
  %19 = load i64, ptr %5, align 8, !tbaa !14
  %20 = inttoptr i64 %19 to ptr
  %21 = getelementptr inbounds nuw %struct.RTypedData, ptr %20, i32 0, i32 3
  store ptr %18, ptr %21, align 8, !tbaa !20
  %22 = load ptr, ptr %3, align 8, !tbaa !18
  %23 = load i32, ptr @ossl_sslctx_ex_ptr_idx, align 4, !tbaa !12
  %24 = load i64, ptr %5, align 8, !tbaa !14
  %25 = inttoptr i64 %24 to ptr
  %26 = call i32 @SSL_CTX_set_ex_data(ptr noundef %22, i32 noundef %23, ptr noundef %25)
  %27 = load i64, ptr %5, align 8, !tbaa !14
  call void @llvm.lifetime.end.p0(i64 8, ptr %5) #20
  call void @llvm.lifetime.end.p0(i64 8, ptr %4) #20
  call void @llvm.lifetime.end.p0(i64 8, ptr %3) #20
  ret i64 %27
}