; Function Attrs: nounwind sspstrong uwtable
define internal i64 @ossl_sslctx_s_alloc(i64 noundef %0) #0 {
  %2 = tail call i64 @rb_data_typed_object_wrap(i64 noundef %0, ptr noundef null, ptr noundef nonnull @ossl_sslctx_type) #9
  %3 = tail call ptr @TLS_method() #9
  %4 = tail call ptr @SSL_CTX_new(ptr noundef %3) #9
  %.not = icmp eq ptr %4, null
  br i1 %.not, label %5, label %7

5:                                                ; preds = %1
  %6 = load i64, ptr @eSSLError, align 8, !tbaa !10
  tail call void (i64, ptr, ...) @ossl_raise(i64 noundef %6, ptr noundef nonnull @.str.185) #10
  unreachable

7:                                                ; preds = %1
  %8 = tail call i64 @SSL_CTX_ctrl(ptr noundef nonnull %4, i32 noundef 33, i64 noundef 19, ptr noundef null) #9
  %9 = inttoptr i64 %2 to ptr
  %10 = getelementptr inbounds nuw i8, ptr %9, i64 32
  store ptr %4, ptr %10, align 8, !tbaa !12
  %11 = load i32, ptr @ossl_sslctx_ex_ptr_idx, align 4, !tbaa !6
  %12 = tail call i32 @SSL_CTX_set_ex_data(ptr noundef nonnull %4, i32 noundef %11, ptr noundef %9) #9
  ret i64 %2
}